; Function Attrs: inlinehint mustprogress nounwind uwtable
define internal void @_ZN12_GLOBAL__N_115AverageHashImplD0Ev(ptr noundef nonnull align 8 dereferenceable(296) %0) unnamed_addr #10 align 2 {
  %2 = getelementptr inbounds nuw i8, ptr %0, i64 200
  tail call void @_ZN2cv3MatD1Ev(ptr noundef nonnull align 8 dereferenceable(96) %2) #21
  %3 = getelementptr inbounds nuw i8, ptr %0, i64 104
  tail call void @_ZN2cv3MatD1Ev(ptr noundef nonnull align 8 dereferenceable(96) %3) #21
  %4 = getelementptr inbounds nuw i8, ptr %0, i64 8
  tail call void @_ZN2cv3MatD1Ev(ptr noundef nonnull align 8 dereferenceable(96) %4) #21
  tail call void @_ZdlPv(ptr noundef nonnull %0) #24
  ret void
}